; Function Attrs: mustprogress nounwind uwtable
define dso_local void @_ZN4node4quic17CallbackScopeBaseC2EPNS_11EnvironmentE(ptr noundef nonnull align 8 dereferenceable(64) %this, ptr noundef %env) unnamed_addr #3 align 2 {
entry:
  store ptr %env, ptr %this, align 8
  %context_scope = getelementptr inbounds i8, ptr %this, i64 8
  %principal_realm_.i.i = getelementptr inbounds i8, ptr %env, i64 2728
  %0 = load ptr, ptr %principal_realm_.i.i, align 8
  %vtable.i = load ptr, ptr %0, align 8
  %vfn.i = getelementptr inbounds i8, ptr %vtable.i, i64 64
  %1 = load ptr, ptr %vfn.i, align 8
  %call2.i = tail call ptr %1(ptr noundef nonnull align 8 dereferenceable(872) %0) #19
  store ptr %call2.i, ptr %context_scope, align 8
  tail call void @_ZN2v87Context5EnterEv(ptr noundef nonnull align 1 dereferenceable(1) %call2.i) #19
  %try_catch = getelementptr inbounds i8, ptr %this, i64 16
  %isolate_.i = getelementptr inbounds i8, ptr %env, i64 88
  %2 = load ptr, ptr %isolate_.i, align 8
  tail call void @_ZN2v88TryCatchC1EPNS_7IsolateE(ptr noundef nonnull align 8 dereferenceable(41) %try_catch, ptr noundef %2) #19
  ret void
}